; ModuleID = '49/803.cpp'
source_filename = "49/803.cpp"
target datalayout = "e-m:e-p270:32:32-p271:32:32-p272:64:64-i64:64-f80:128-n8:16:32:64-S128"
target triple = "x86_64-pc-linux-gnu"

%"class.std::ios_base::Init" = type { i8 }
%"class.std::basic_istream" = type { i32 (...)**, i64, %"class.std::basic_ios" }
%"class.std::basic_ios" = type { %"class.std::ios_base", %"class.std::basic_ostream"*, i8, i8, %"class.std::basic_streambuf"*, %"class.std::ctype"*, %"class.std::num_put"*, %"class.std::num_get"* }
%"class.std::ios_base" = type { i32 (...)**, i64, i64, i32, i32, i32, %"struct.std::ios_base::_Callback_list"*, %"struct.std::ios_base::_Words", [8 x %"struct.std::ios_base::_Words"], i32, %"struct.std::ios_base::_Words"*, %"class.std::locale" }
%"struct.std::ios_base::_Callback_list" = type { %"struct.std::ios_base::_Callback_list"*, void (i32, %"class.std::ios_base"*, i32)*, i32, i32 }
%"struct.std::ios_base::_Words" = type { i8*, i64 }
%"class.std::locale" = type { %"class.std::locale::_Impl"* }
%"class.std::locale::_Impl" = type { i32, %"class.std::locale::facet"**, i64, %"class.std::locale::facet"**, i8** }
%"class.std::locale::facet" = type <{ i32 (...)**, i32, [4 x i8] }>
%"class.std::basic_ostream" = type { i32 (...)**, %"class.std::basic_ios" }
%"class.std::basic_streambuf" = type { i32 (...)**, i8*, i8*, i8*, i8*, i8*, i8*, %"class.std::locale" }
%"class.std::ctype" = type <{ %"class.std::locale::facet.base", [4 x i8], %struct.__locale_struct*, i8, [7 x i8], i32*, i32*, i16*, i8, [256 x i8], [256 x i8], i8, [6 x i8] }>
%"class.std::locale::facet.base" = type <{ i32 (...)**, i32 }>
%struct.__locale_struct = type { [13 x %struct.__locale_data*], i16*, i32*, i32*, [13 x i8*] }
%struct.__locale_data = type opaque
%"class.std::num_put" = type { %"class.std::locale::facet.base", [4 x i8] }
%"class.std::num_get" = type { %"class.std::locale::facet.base", [4 x i8] }

@_ZStL8__ioinit = internal global %"class.std::ios_base::Init" zeroinitializer, align 1
@__dso_handle = external hidden global i8
@_ZSt3cin = external dso_local global %"class.std::basic_istream", align 8
@_ZSt4cout = external dso_local global %"class.std::basic_ostream", align 8
@llvm.global_ctors = appending global [1 x { i32, void ()*, i8* }] [{ i32, void ()*, i8* } { i32 65535, void ()* @_GLOBAL__sub_I_803.cpp, i8* null }]

; Function Attrs: noinline uwtable
define internal void @__cxx_global_var_init() #0 section ".text.startup" {
  call void @_ZNSt8ios_base4InitC1Ev(%"class.std::ios_base::Init"* @_ZStL8__ioinit)
  %1 = call i32 @__cxa_atexit(void (i8*)* bitcast (void (%"class.std::ios_base::Init"*)* @_ZNSt8ios_base4InitD1Ev to void (i8*)*), i8* getelementptr inbounds (%"class.std::ios_base::Init", %"class.std::ios_base::Init"* @_ZStL8__ioinit, i32 0, i32 0), i8* @__dso_handle) #3
  ret void
}

declare dso_local void @_ZNSt8ios_base4InitC1Ev(%"class.std::ios_base::Init"*) unnamed_addr #1

; Function Attrs: nounwind
declare dso_local void @_ZNSt8ios_base4InitD1Ev(%"class.std::ios_base::Init"*) unnamed_addr #2

; Function Attrs: nounwind
declare dso_local i32 @__cxa_atexit(void (i8*)*, i8*, i8*) #3

; Function Attrs: noinline norecurse uwtable
define dso_local i32 @main() #4 {
  %1 = alloca i32, align 4
  %2 = alloca [500 x i8], align 16
  %3 = alloca i32, align 4
  %4 = alloca i32, align 4
  %5 = alloca i32, align 4
  %6 = alloca i32, align 4
  %7 = alloca i32, align 4
  %8 = alloca i32, align 4
  %9 = alloca i32, align 4
  %10 = alloca i32, align 4
  store i32 0, i32* %1, align 4
  %11 = getelementptr inbounds [500 x i8], [500 x i8]* %2, i64 0, i64 0
  %12 = call dereferenceable(280) %"class.std::basic_istream"* @_ZStrsIcSt11char_traitsIcEERSt13basic_istreamIT_T0_ES6_PS3_(%"class.std::basic_istream"* dereferenceable(280) @_ZSt3cin, i8* %11)
  %13 = getelementptr inbounds [500 x i8], [500 x i8]* %2, i64 0, i64 0
  %14 = call i64 @strlen(i8* %13) #6
  %15 = trunc i64 %14 to i32
  store i32 %15, i32* %3, align 4
  store i32 2, i32* %4, align 4
  br label %16

16:                                               ; preds = %103, %0
  %17 = load i32, i32* %4, align 4
  %18 = load i32, i32* %3, align 4
  %19 = sub nsw i32 %18, 1
  %20 = icmp sle i32 %17, %19
  br i1 %20, label %21, label %106

21:                                               ; preds = %16
  store i32 0, i32* %5, align 4
  br label %22

22:                                               ; preds = %99, %21
  %23 = load i32, i32* %5, align 4
  %24 = load i32, i32* %3, align 4
  %25 = load i32, i32* %4, align 4
  %26 = sub nsw i32 %24, %25
  %27 = icmp sle i32 %23, %26
  br i1 %27, label %28, label %102

28:                                               ; preds = %22
  store i32 0, i32* %7, align 4
  %29 = load i32, i32* %5, align 4
  store i32 %29, i32* %8, align 4
  %30 = load i32, i32* %5, align 4
  %31 = load i32, i32* %4, align 4
  %32 = add nsw i32 %30, %31
  %33 = sub nsw i32 %32, 1
  store i32 %33, i32* %6, align 4
  br label %34

34:                                               ; preds = %93, %28
  %35 = load i32, i32* %6, align 4
  %36 = load i32, i32* %8, align 4
  %37 = icmp sge i32 %35, %36
  br i1 %37, label %38, label %98

38:                                               ; preds = %34
  store i32 0, i32* %7, align 4
  %39 = load i32, i32* %8, align 4
  %40 = sext i32 %39 to i64
  %41 = getelementptr inbounds [500 x i8], [500 x i8]* %2, i64 0, i64 %40
  %42 = load i8, i8* %41, align 1
  %43 = sext i8 %42 to i32
  %44 = load i32, i32* %6, align 4
  %45 = sext i32 %44 to i64
  %46 = getelementptr inbounds [500 x i8], [500 x i8]* %2, i64 0, i64 %45
  %47 = load i8, i8* %46, align 1
  %48 = sext i8 %47 to i32
  %49 = icmp eq i32 %43, %48
  br i1 %49, label %50, label %51

50:                                               ; preds = %38
  store i32 1, i32* %7, align 4
  br label %52

51:                                               ; preds = %38
  store i32 0, i32* %7, align 4
  br label %98

52:                                               ; preds = %50
  %53 = load i32, i32* %7, align 4
  %54 = icmp eq i32 %53, 1
  br i1 %54, label %55, label %92

55:                                               ; preds = %52
  %56 = load i32, i32* %6, align 4
  %57 = load i32, i32* %8, align 4
  %58 = icmp eq i32 %56, %57
  br i1 %58, label %64, label %59

59:                                               ; preds = %55
  %60 = load i32, i32* %6, align 4
  %61 = load i32, i32* %8, align 4
  %62 = add nsw i32 %61, 1
  %63 = icmp eq i32 %60, %62
  br i1 %63, label %64, label %92

64:                                               ; preds = %59, %55
  %65 = load i32, i32* %5, align 4
  store i32 %65, i32* %9, align 4
  br label %66

66:                                               ; preds = %88, %64
  %67 = load i32, i32* %9, align 4
  %68 = load i32, i32* %5, align 4
  %69 = load i32, i32* %4, align 4
  %70 = add nsw i32 %68, %69
  %71 = sub nsw i32 %70, 1
  %72 = icmp sle i32 %67, %71
  br i1 %72, label %73, label %91

73:                                               ; preds = %66
  %74 = load i32, i32* %9, align 4
  %75 = sext i32 %74 to i64
  %76 = getelementptr inbounds [500 x i8], [500 x i8]* %2, i64 0, i64 %75
  %77 = load i8, i8* %76, align 1
  %78 = call dereferenceable(272) %"class.std::basic_ostream"* @_ZStlsISt11char_traitsIcEERSt13basic_ostreamIcT_ES5_c(%"class.std::basic_ostream"* dereferenceable(272) @_ZSt4cout, i8 signext %77)
  %79 = load i32, i32* %9, align 4
  %80 = load i32, i32* %5, align 4
  %81 = load i32, i32* %4, align 4
  %82 = add nsw i32 %80, %81
  %83 = sub nsw i32 %82, 1
  %84 = icmp eq i32 %79, %83
  br i1 %84, label %85, label %87

85:                                               ; preds = %73
  %86 = call dereferenceable(272) %"class.std::basic_ostream"* @_ZNSolsEPFRSoS_E(%"class.std::basic_ostream"* @_ZSt4cout, %"class.std::basic_ostream"* (%"class.std::basic_ostream"*)* @_ZSt4endlIcSt11char_traitsIcEERSt13basic_ostreamIT_T0_ES6_)
  br label %87

87:                                               ; preds = %85, %73
  br label %88

88:                                               ; preds = %87
  %89 = load i32, i32* %9, align 4
  %90 = add nsw i32 %89, 1
  store i32 %90, i32* %9, align 4
  br label %66

91:                                               ; preds = %66
  br label %92

92:                                               ; preds = %91, %59, %52
  br label %93

93:                                               ; preds = %92
  %94 = load i32, i32* %8, align 4
  %95 = add nsw i32 %94, 1
  store i32 %95, i32* %8, align 4
  %96 = load i32, i32* %6, align 4
  %97 = add nsw i32 %96, -1
  store i32 %97, i32* %6, align 4
  br label %34

98:                                               ; preds = %51, %34
  br label %99

99:                                               ; preds = %98
  %100 = load i32, i32* %5, align 4
  %101 = add nsw i32 %100, 1
  store i32 %101, i32* %5, align 4
  br label %22

102:                                              ; preds = %22
  br label %103

103:                                              ; preds = %102
  %104 = load i32, i32* %4, align 4
  %105 = add nsw i32 %104, 1
  store i32 %105, i32* %4, align 4
  br label %16

106:                                              ; preds = %16
  ret i32 0
}

declare dso_local dereferenceable(280) %"class.std::basic_istream"* @_ZStrsIcSt11char_traitsIcEERSt13basic_istreamIT_T0_ES6_PS3_(%"class.std::basic_istream"* dereferenceable(280), i8*) #1

; Function Attrs: nounwind readonly
declare dso_local i64 @strlen(i8*) #5

declare dso_local dereferenceable(272) %"class.std::basic_ostream"* @_ZStlsISt11char_traitsIcEERSt13basic_ostreamIcT_ES5_c(%"class.std::basic_ostream"* dereferenceable(272), i8 signext) #1

declare dso_local dereferenceable(272) %"class.std::basic_ostream"* @_ZNSolsEPFRSoS_E(%"class.std::basic_ostream"*, %"class.std::basic_ostream"* (%"class.std::basic_ostream"*)*) #1

declare dso_local dereferenceable(272) %"class.std::basic_ostream"* @_ZSt4endlIcSt11char_traitsIcEERSt13basic_ostreamIT_T0_ES6_(%"class.std::basic_ostream"* dereferenceable(272)) #1

; Function Attrs: noinline uwtable
define internal void @_GLOBAL__sub_I_803.cpp() #0 section ".text.startup" {
  call void @__cxx_global_var_init()
  ret void
}


!llvm.module.flags = !{!0}
!llvm.ident = !{!1}

!0 = !{i32 1, !"wchar_size", i32 4}
!1 = !{!"clang version 10.0.0-4ubuntu1 "}
